; Function Attrs: nounwind uwtable
define ptr @l_List_filterMapTR_go___at_Lean_Meta_Tactic_Backtrack_Backtrack_tryAllM___spec__2___rarg(ptr noundef %0, ptr noundef %1) #0 {
  br label %lean_dec.exit.outer

lean_dec.exit.outer:                              ; preds = %lean_dec.exit27, %2
  %.021.ph = phi ptr [ %64, %lean_dec.exit27 ], [ %1, %2 ]
  %.0.ph = phi ptr [ %31, %lean_dec.exit27 ], [ %0, %2 ]
  br label %lean_dec.exit

lean_dec.exit:                                    ; preds = %lean_dec.exit.backedge, %lean_dec.exit.outer
  %.0 = phi ptr [ %.0.ph, %lean_dec.exit.outer ], [ %72, %lean_dec.exit.backedge ]
  %3 = ptrtoint ptr %.0 to i64
  %4 = and i64 %3, 1
  %.not.i35 = icmp eq i64 %4, 0
  br i1 %.not.i35, label %8, label %5

5:                                                ; preds = %lean_dec.exit
  %6 = lshr i64 %3, 1
  %7 = trunc i64 %6 to i32
  br label %lean_obj_tag.exit

8:                                                ; preds = %lean_dec.exit
  %9 = getelementptr i8, ptr %.0, i64 4
  %.val.i = load i32, ptr %9, align 4
  %10 = lshr i32 %.val.i, 24
  br label %lean_obj_tag.exit

lean_obj_tag.exit:                                ; preds = %5, %8
  %.0.i = phi i32 [ %7, %5 ], [ %10, %8 ]
  %11 = icmp eq i32 %.0.i, 0
  br i1 %11, label %12, label %14

12:                                               ; preds = %lean_obj_tag.exit
  %13 = tail call ptr @lean_array_to_list(ptr noundef %.021.ph) #4
  ret ptr %13

14:                                               ; preds = %lean_obj_tag.exit
  %15 = getelementptr inbounds nuw i8, ptr %.0, i64 8
  %16 = load ptr, ptr %15, align 8, !tbaa !10
  %17 = ptrtoint ptr %16 to i64
  %18 = and i64 %17, 1
  %.not = icmp eq i64 %18, 0
  br i1 %.not, label %19, label %lean_obj_tag.exit41

19:                                               ; preds = %14
  %.val.i36 = load i32, ptr %16, align 4, !tbaa !4
  %20 = icmp sgt i32 %.val.i36, 0
  br i1 %20, label %21, label %23, !prof !9

21:                                               ; preds = %19
  %22 = add nuw i32 %.val.i36, 1
  store i32 %22, ptr %16, align 4, !tbaa !4
  br label %lean_obj_tag.exit41.thread

23:                                               ; preds = %19
  %.not.i37 = icmp eq i32 %.val.i36, 0
  br i1 %.not.i37, label %lean_obj_tag.exit41.thread, label %24

24:                                               ; preds = %23
  tail call void @lean_inc_ref_cold(ptr noundef nonnull %16) #4
  br label %lean_obj_tag.exit41.thread

lean_obj_tag.exit41:                              ; preds = %14
  %25 = and i64 %17, 8589934590
  %26 = icmp eq i64 %25, 0
  br i1 %26, label %29, label %lean_dec.exit26

lean_obj_tag.exit41.thread:                       ; preds = %21, %23, %24
  %27 = getelementptr i8, ptr %16, i64 4
  %.val.i40 = load i32, ptr %27, align 4
  %28 = icmp ult i32 %.val.i40, 16777216
  br i1 %28, label %29, label %.thread

29:                                               ; preds = %lean_obj_tag.exit41.thread, %lean_obj_tag.exit41
  %30 = getelementptr inbounds nuw i8, ptr %.0, i64 16
  %31 = load ptr, ptr %30, align 8, !tbaa !10
  %32 = ptrtoint ptr %31 to i64
  %33 = and i64 %32, 1
  %.not55 = icmp eq i64 %33, 0
  br i1 %.not55, label %34, label %lean_inc.exit24

34:                                               ; preds = %29
  %.val.i42 = load i32, ptr %31, align 4, !tbaa !4
  %35 = icmp sgt i32 %.val.i42, 0
  br i1 %35, label %36, label %38, !prof !9

36:                                               ; preds = %34
  %37 = add nuw i32 %.val.i42, 1
  store i32 %37, ptr %31, align 4, !tbaa !4
  br label %lean_inc.exit24

38:                                               ; preds = %34
  %.not.i43 = icmp eq i32 %.val.i42, 0
  br i1 %.not.i43, label %lean_inc.exit24, label %39

39:                                               ; preds = %38
  tail call void @lean_inc_ref_cold(ptr noundef nonnull %31) #4
  br label %lean_inc.exit24

lean_inc.exit24:                                  ; preds = %39, %38, %36, %29
  br i1 %.not.i35, label %40, label %lean_dec.exit28

40:                                               ; preds = %lean_inc.exit24
  %41 = load i32, ptr %.0, align 4, !tbaa !4
  %42 = icmp sgt i32 %41, 1
  br i1 %42, label %43, label %45, !prof !9

43:                                               ; preds = %40
  %44 = add nsw i32 %41, -1
  store i32 %44, ptr %.0, align 4, !tbaa !4
  br label %lean_dec.exit28

45:                                               ; preds = %40
  %.not.i = icmp eq i32 %41, 0
  br i1 %.not.i, label %lean_dec.exit28, label %46

46:                                               ; preds = %45
  tail call void @lean_dec_ref_cold(ptr noundef nonnull %.0) #4
  br label %lean_dec.exit28

lean_dec.exit28:                                  ; preds = %46, %45, %43, %lean_inc.exit24
  %47 = getelementptr inbounds nuw i8, ptr %16, i64 8
  %48 = load ptr, ptr %47, align 8, !tbaa !10
  %49 = ptrtoint ptr %48 to i64
  %50 = and i64 %49, 1
  %.not57 = icmp eq i64 %50, 0
  br i1 %.not57, label %51, label %lean_inc.exit23

51:                                               ; preds = %lean_dec.exit28
  %.val.i45 = load i32, ptr %48, align 4, !tbaa !4
  %52 = icmp sgt i32 %.val.i45, 0
  br i1 %52, label %53, label %55, !prof !9

53:                                               ; preds = %51
  %54 = add nuw i32 %.val.i45, 1
  store i32 %54, ptr %48, align 4, !tbaa !4
  br label %lean_inc.exit23

55:                                               ; preds = %51
  %.not.i46 = icmp eq i32 %.val.i45, 0
  br i1 %.not.i46, label %lean_inc.exit23, label %56

56:                                               ; preds = %55
  tail call void @lean_inc_ref_cold(ptr noundef nonnull %48) #4
  br label %lean_inc.exit23

lean_inc.exit23:                                  ; preds = %56, %55, %53, %lean_dec.exit28
  br i1 %.not, label %57, label %lean_dec.exit27

57:                                               ; preds = %lean_inc.exit23
  %58 = load i32, ptr %16, align 4, !tbaa !4
  %59 = icmp sgt i32 %58, 1
  br i1 %59, label %60, label %62, !prof !9

60:                                               ; preds = %57
  %61 = add nsw i32 %58, -1
  store i32 %61, ptr %16, align 4, !tbaa !4
  br label %lean_dec.exit27

62:                                               ; preds = %57
  %.not.i29 = icmp eq i32 %58, 0
  br i1 %.not.i29, label %lean_dec.exit27, label %63

63:                                               ; preds = %62
  tail call void @lean_dec_ref_cold(ptr noundef nonnull %16) #4
  br label %lean_dec.exit27

lean_dec.exit27:                                  ; preds = %63, %62, %60, %lean_inc.exit23
  %64 = tail call ptr @lean_array_push(ptr noundef %.021.ph, ptr noundef %48) #4
  br label %lean_dec.exit.outer

.thread:                                          ; preds = %lean_obj_tag.exit41.thread
  %65 = load i32, ptr %16, align 4, !tbaa !4
  %66 = icmp sgt i32 %65, 1
  br i1 %66, label %67, label %69, !prof !9

67:                                               ; preds = %.thread
  %68 = add nsw i32 %65, -1
  store i32 %68, ptr %16, align 4, !tbaa !4
  br label %lean_dec.exit26

69:                                               ; preds = %.thread
  %.not.i31 = icmp eq i32 %65, 0
  br i1 %.not.i31, label %lean_dec.exit26, label %70

70:                                               ; preds = %69
  tail call void @lean_dec_ref_cold(ptr noundef nonnull %16) #4
  br label %lean_dec.exit26

lean_dec.exit26:                                  ; preds = %lean_obj_tag.exit41, %70, %69, %67
  %71 = getelementptr inbounds nuw i8, ptr %.0, i64 16
  %72 = load ptr, ptr %71, align 8, !tbaa !10
  %73 = ptrtoint ptr %72 to i64
  %74 = and i64 %73, 1
  %.not53 = icmp eq i64 %74, 0
  br i1 %.not53, label %75, label %lean_inc.exit

75:                                               ; preds = %lean_dec.exit26
  %.val.i48 = load i32, ptr %72, align 4, !tbaa !4
  %76 = icmp sgt i32 %.val.i48, 0
  br i1 %76, label %77, label %79, !prof !9

77:                                               ; preds = %75
  %78 = add nuw i32 %.val.i48, 1
  store i32 %78, ptr %72, align 4, !tbaa !4
  br label %lean_inc.exit

79:                                               ; preds = %75
  %.not.i49 = icmp eq i32 %.val.i48, 0
  br i1 %.not.i49, label %lean_inc.exit, label %80

80:                                               ; preds = %79
  tail call void @lean_inc_ref_cold(ptr noundef nonnull %72) #4
  br label %lean_inc.exit

lean_inc.exit:                                    ; preds = %80, %79, %77, %lean_dec.exit26
  br i1 %.not.i35, label %81, label %lean_dec.exit.backedge

lean_dec.exit.backedge:                           ; preds = %lean_inc.exit, %84, %86, %87
  br label %lean_dec.exit

81:                                               ; preds = %lean_inc.exit
  %82 = load i32, ptr %.0, align 4, !tbaa !4
  %83 = icmp sgt i32 %82, 1
  br i1 %83, label %84, label %86, !prof !9

84:                                               ; preds = %81
  %85 = add nsw i32 %82, -1
  store i32 %85, ptr %.0, align 4, !tbaa !4
  br label %lean_dec.exit.backedge

86:                                               ; preds = %81
  %.not.i33 = icmp eq i32 %82, 0
  br i1 %.not.i33, label %lean_dec.exit.backedge, label %87

87:                                               ; preds = %86
  tail call void @lean_dec_ref_cold(ptr noundef nonnull %.0) #4
  br label %lean_dec.exit.backedge
}